; Function Attrs: mustprogress uwtable
define dso_local void @_ZN26cmCTestMultiProcessHandler12FinalizeLoopEv(ptr noundef nonnull align 8 dereferenceable(870) %0) local_unnamed_addr #3 align 2 {
  %2 = getelementptr inbounds i8, ptr %0, i64 744
  %3 = load i8, ptr %2, align 8
  %4 = and i8 %3, 1
  %.not.i.i.i = icmp eq i8 %4, 0
  br i1 %.not.i.i.i, label %_ZNSt8optionalI19cmUVJobServerClientE5resetEv.exit, label %5

5:                                                ; preds = %1
  %6 = getelementptr inbounds i8, ptr %0, i64 736
  store i8 0, ptr %2, align 8
  tail call void @_ZN19cmUVJobServerClientD1Ev(ptr noundef nonnull align 8 dereferenceable(8) %6) #25
  br label %_ZNSt8optionalI19cmUVJobServerClientE5resetEv.exit

_ZNSt8optionalI19cmUVJobServerClientE5resetEv.exit: ; preds = %1, %5
  %7 = getelementptr inbounds i8, ptr %0, i64 824
  tail call void @_ZN2cm19uv_handle_ptr_base_I10uv_timer_sE5resetEv(ptr noundef nonnull align 8 dereferenceable(16) %7)
  %8 = getelementptr inbounds i8, ptr %0, i64 808
  tail call void @_ZN2cm19uv_handle_ptr_base_I9uv_idle_sE5resetEv(ptr noundef nonnull align 8 dereferenceable(16) %8)
  %9 = getelementptr inbounds i8, ptr %0, i64 792
  tail call void @_ZN2cm11uv_loop_ptr5resetEv(ptr noundef nonnull align 8 dereferenceable(16) %9)
  ret void
}